; Function Attrs: mustprogress nounwind uwtable
define dso_local noundef ptr @_ZNK4llvm10UndefValue15getElementValueEj(ptr nocapture noundef nonnull readonly align 8 dereferenceable(24) %0, i32 noundef %1) local_unnamed_addr #0 align 2 {
  %3 = getelementptr inbounds nuw i8, ptr %0, i64 8
  %4 = load ptr, ptr %3, align 8
  %5 = getelementptr inbounds nuw i8, ptr %4, i64 8
  %6 = load i32, ptr %5, align 8
  %7 = and i32 %6, 255
  %.off = add nsw i32 %7, -16
  %switch = icmp ult i32 %.off, 3
  br i1 %switch, label %.critedge, label %9

.critedge:                                        ; preds = %2
  %8 = getelementptr inbounds nuw i8, ptr %4, i64 24
  br label %14

9:                                                ; preds = %2
  %10 = getelementptr inbounds nuw i8, ptr %4, i64 16
  %11 = load ptr, ptr %10, align 8
  %12 = zext i32 %1 to i64
  %13 = getelementptr inbounds ptr, ptr %11, i64 %12
  br label %14

14:                                               ; preds = %9, %.critedge
  %.sink3 = phi ptr [ %13, %9 ], [ %8, %.critedge ]
  %15 = load ptr, ptr %.sink3, align 8
  %16 = tail call noundef ptr @_ZN4llvm10UndefValue3getEPNS_4TypeE(ptr noundef %15)
  ret ptr %16
}